; ModuleID = '50/369.c'
source_filename = "50/369.c"
target datalayout = "e-m:e-p270:32:32-p271:32:32-p272:64:64-i64:64-f80:128-n8:16:32:64-S128"
target triple = "x86_64-pc-linux-gnu"

@__const.main.monthday = private unnamed_addr constant [12 x i32] [i32 31, i32 28, i32 31, i32 30, i32 31, i32 30, i32 31, i32 31, i32 30, i32 31, i32 30, i32 31], align 16
@.str = private unnamed_addr constant [3 x i8] c"%d\00", align 1
@.str.1 = private unnamed_addr constant [4 x i8] c"%d\0A\00", align 1

; Function Attrs: noinline nounwind uwtable
define dso_local i32 @main() #0 {
  %1 = alloca i32, align 4
  %2 = alloca [12 x i32], align 16
  %3 = alloca i32, align 4
  %4 = alloca i32, align 4
  %5 = alloca i32, align 4
  store i32 0, i32* %1, align 4
  %6 = bitcast [12 x i32]* %2 to i8*
  call void @llvm.memcpy.p0i8.p0i8.i64(i8* align 16 %6, i8* align 16 bitcast ([12 x i32]* @__const.main.monthday to i8*), i64 48, i1 false)
  %7 = call i32 (i8*, ...) @__isoc99_scanf(i8* getelementptr inbounds ([3 x i8], [3 x i8]* @.str, i64 0, i64 0), i32* %3)
  store i32 0, i32* %4, align 4
  br label %8

8:                                                ; preds = %42, %0
  %9 = load i32, i32* %4, align 4
  %10 = icmp slt i32 %9, 12
  br i1 %10, label %11, label %45

11:                                               ; preds = %8
  store i32 0, i32* %5, align 4
  br label %12

12:                                               ; preds = %38, %11
  %13 = load i32, i32* %5, align 4
  %14 = load i32, i32* %4, align 4
  %15 = sext i32 %14 to i64
  %16 = getelementptr inbounds [12 x i32], [12 x i32]* %2, i64 0, i64 %15
  %17 = load i32, i32* %16, align 4
  %18 = icmp slt i32 %13, %17
  br i1 %18, label %19, label %41

19:                                               ; preds = %12
  %20 = load i32, i32* %3, align 4
  %21 = icmp eq i32 %20, 5
  br i1 %21, label %22, label %29

22:                                               ; preds = %19
  %23 = load i32, i32* %5, align 4
  %24 = icmp eq i32 %23, 12
  br i1 %24, label %25, label %29

25:                                               ; preds = %22
  %26 = load i32, i32* %4, align 4
  %27 = add nsw i32 %26, 1
  %28 = call i32 (i8*, ...) @printf(i8* getelementptr inbounds ([4 x i8], [4 x i8]* @.str.1, i64 0, i64 0), i32 %27)
  br label %29

29:                                               ; preds = %25, %22, %19
  %30 = load i32, i32* %3, align 4
  %31 = icmp eq i32 %30, 7
  br i1 %31, label %32, label %33

32:                                               ; preds = %29
  br label %36

33:                                               ; preds = %29
  %34 = load i32, i32* %3, align 4
  %35 = add nsw i32 %34, 1
  br label %36

36:                                               ; preds = %33, %32
  %37 = phi i32 [ 1, %32 ], [ %35, %33 ]
  store i32 %37, i32* %3, align 4
  br label %38

38:                                               ; preds = %36
  %39 = load i32, i32* %5, align 4
  %40 = add nsw i32 %39, 1
  store i32 %40, i32* %5, align 4
  br label %12

41:                                               ; preds = %12
  br label %42

42:                                               ; preds = %41
  %43 = load i32, i32* %4, align 4
  %44 = add nsw i32 %43, 1
  store i32 %44, i32* %4, align 4
  br label %8

45:                                               ; preds = %8
  ret i32 0
}

; Function Attrs: argmemonly nounwind willreturn
declare void @llvm.memcpy.p0i8.p0i8.i64(i8* noalias nocapture writeonly, i8* noalias nocapture readonly, i64, i1 immarg) #1

declare dso_local i32 @__isoc99_scanf(i8*, ...) #2

declare dso_local i32 @printf(i8*, ...) #2


!llvm.module.flags = !{!0}
!llvm.ident = !{!1}

!0 = !{i32 1, !"wchar_size", i32 4}
!1 = !{!"clang version 10.0.0-4ubuntu1 "}
